target datalayout = "e-m:e-p270:32:32-p271:32:32-p272:64:64-i64:64-i128:128-f80:128-n8:16:32:64-S128"
target triple = "x86_64-pc-linux-gnu"

%struct.mpd_t = type { i8, i64, i64, i64, i64, ptr }

; Function Attrs: alwaysinline nounwind uwtable
define hidden i64 @mpd_msword(ptr noundef %0) #1 {
  %2 = alloca ptr, align 8
  store ptr %0, ptr %2, align 8, !tbaa !7
  %3 = load ptr, ptr %2, align 8, !tbaa !7
  %4 = getelementptr inbounds nuw %struct.mpd_t, ptr %3, i32 0, i32 5
  %5 = load ptr, ptr %4, align 8, !tbaa !21
  %6 = load ptr, ptr %2, align 8, !tbaa !7
  %7 = getelementptr inbounds nuw %struct.mpd_t, ptr %6, i32 0, i32 3
  %8 = load i64, ptr %7, align 8, !tbaa !22
  %9 = sub i64 %8, 1
  %10 = getelementptr i64, ptr %5, i64 %9
  %11 = load i64, ptr %10, align 8, !tbaa !3
  ret i64 %11
}

; Function Attrs: alwaysinline nounwind uwtable
define hidden i32 @mpd_isspecial(ptr noundef %0) #1 {
  %2 = alloca ptr, align 8
  store ptr %0, ptr %2, align 8, !tbaa !7
  %3 = load ptr, ptr %2, align 8, !tbaa !7
  %4 = getelementptr inbounds nuw %struct.mpd_t, ptr %3, i32 0, i32 0
  %5 = load i8, ptr %4, align 8, !tbaa !25
  %6 = zext i8 %5 to i32
  %7 = and i32 %6, 14
  ret i32 %7
}

; Function Attrs: alwaysinline nounwind uwtable
define hidden i32 @mpd_iszero(ptr noundef %0) #1 {
  %2 = alloca ptr, align 8
  store ptr %0, ptr %2, align 8, !tbaa !7
  %3 = load ptr, ptr %2, align 8, !tbaa !7
  %4 = call i32 @mpd_isspecial(ptr noundef %3)
  %5 = icmp ne i32 %4, 0
  br i1 %5, label %10, label %6

6:                                                ; preds = %1
  %7 = load ptr, ptr %2, align 8, !tbaa !7
  %8 = call i64 @mpd_msword(ptr noundef %7)
  %9 = icmp eq i64 %8, 0
  br label %10

10:                                               ; preds = %6, %1
  %11 = phi i1 [ false, %1 ], [ %9, %6 ]
  %12 = zext i1 %11 to i32
  ret i32 %12
}