; Function Attrs: alwaysinline mustprogress nofree norecurse nosync nounwind willreturn memory(read, inaccessiblemem: none) uwtable
define hidden range(i32 0, 2) i32 @mpd_iszero(ptr noundef readonly captures(none) %0) local_unnamed_addr #3 {
  %2 = load i8, ptr %0, align 8, !tbaa !19
  %3 = and i8 %2, 14
  %.not = icmp eq i8 %3, 0
  br i1 %.not, label %4, label %14

4:                                                ; preds = %1
  %5 = getelementptr inbounds nuw i8, ptr %0, i64 40
  %6 = load ptr, ptr %5, align 8, !tbaa !17
  %7 = getelementptr inbounds nuw i8, ptr %0, i64 24
  %8 = load i64, ptr %7, align 8, !tbaa !18
  %9 = getelementptr i64, ptr %6, i64 %8
  %10 = getelementptr i8, ptr %9, i64 -8
  %11 = load i64, ptr %10, align 8, !tbaa !3
  %12 = icmp eq i64 %11, 0
  %13 = zext i1 %12 to i32
  br label %14

14:                                               ; preds = %4, %1
  %15 = phi i32 [ 0, %1 ], [ %13, %4 ]
  ret i32 %15
}